target datalayout = "e-m:e-p270:32:32-p271:32:32-p272:64:64-i64:64-i128:128-f80:128-n8:16:32:64-S128"
target triple = "x86_64-pc-linux-gnu"

%struct.H5D_layout_ops_t = type { ptr, ptr, ptr, ptr, ptr, ptr, ptr, ptr, ptr, ptr, ptr, ptr, ptr }
%struct.H5D_t = type { %struct.H5O_loc_t, %struct.H5G_name_t, ptr }
%struct.H5O_loc_t = type { ptr, i64, i8 }
%struct.H5G_name_t = type { ptr, ptr, i32 }
%struct.H5D_shared_t = type { i64, i8, i64, ptr, ptr, i64, i64, %struct.H5D_dcpl_cache_t, %struct.H5O_layout_t, i8, i32, [32 x i64], [32 x i64], [32 x i64], %struct.anon.7, %struct.H5D_append_flush_t, ptr, ptr }
%struct.H5D_dcpl_cache_t = type { %struct.H5O_fill_t, %struct.H5O_pline_t, %struct.H5O_efl_t }
%struct.H5O_fill_t = type { %struct.H5O_shared_t, i32, ptr, i64, ptr, i32, i32, i8 }
%struct.H5O_shared_t = type { i32, ptr, i32, %union.anon.0 }
%union.anon.0 = type { %struct.H5O_mesg_loc_t }
%struct.H5O_mesg_loc_t = type { i32, i64 }
%struct.H5O_pline_t = type { %struct.H5O_shared_t, i32, i64, i64, ptr }
%struct.H5O_efl_t = type { i64, i64, i64, ptr }
%struct.H5O_layout_t = type { i32, i32, ptr, %union.anon.1, %struct.H5O_storage_t }
%union.anon.1 = type { %struct.H5O_layout_chunk_t }
%struct.H5O_layout_chunk_t = type { i32, i8, i32, [33 x i32], i32, i32, i64, i64, [33 x i64], [33 x i64], [33 x i64], [33 x i64], %union.anon.2 }
%union.anon.2 = type { %struct.H5O_layout_chunk_earray_t }
%struct.H5O_layout_chunk_earray_t = type { %struct.anon.3, i32, [33 x i32], [33 x i64], [33 x i64] }
%struct.anon.3 = type { i8, i8, i8, i8, i8 }
%struct.H5O_storage_t = type { i32, %union.anon.5 }
%union.anon.5 = type { %struct.H5O_storage_virtual_t }
%struct.H5O_storage_virtual_t = type { %struct.H5HG_t, i64, ptr, i64, [32 x i64], i32, i64, i64, i64, i8 }
%struct.H5HG_t = type { i64, i64 }
%struct.anon.7 = type { %struct.H5D_rdcdc_t, %struct.H5D_rdcc_t }
%struct.H5D_rdcdc_t = type { ptr, i64, i64, i64, i8 }
%struct.H5D_rdcc_t = type { %struct.anon.8, i64, i64, double, ptr, ptr, ptr, i64, i32, %struct.H5D_chunk_cached_t, ptr, ptr, ptr, ptr, [32 x i64], [32 x i64], [32 x i32] }
%struct.anon.8 = type { i32, i32, i32, i32 }
%struct.H5D_chunk_cached_t = type { i8, [33 x i64], i64, i32, i64, i32 }
%struct.H5D_append_flush_t = type { i32, [32 x i64], ptr, ptr }
%struct.H5D_dset_io_info_t = type { ptr, ptr, %struct.H5D_layout_ops_t, %union.H5_flexible_const_ptr_t, %struct.H5D_io_ops_t, ptr, i64, ptr, ptr, %union.anon, ptr, %struct.H5D_type_info_t, i8 }
%union.H5_flexible_const_ptr_t = type { ptr }
%struct.H5D_io_ops_t = type { ptr, ptr, ptr, ptr }
%union.anon = type { ptr }
%struct.H5D_type_info_t = type { ptr, ptr, ptr, ptr, ptr, i64, i64, i8, i8, ptr, i32, i64 }
%struct.H5D_contig_storage_t = type { i64, i64 }
%struct.H5D_io_info_t = type { ptr, %struct.H5D_md_io_ops_t, i32, i64, i64, ptr, i64, i64, i64, ptr, ptr, ptr, ptr, ptr, ptr, ptr, i64, %union.H5_flexible_const_ptr_t, i32, ptr, i8, i64, ptr, i8, i64, i64, i8, i8, i32 }
%struct.H5D_md_io_ops_t = type { ptr, ptr, ptr, ptr }
%struct.H5D_contig_writevv_sieve_ud_t = type { ptr, ptr, ptr, ptr }
%struct.H5D_contig_writevv_ud_t = type { ptr, i64, ptr }

@H5D_init_g = external global i8, align 1
@H5_libterm_g = external global i8, align 1
@.str.1 = private unnamed_addr constant [103 x i8] c"generated/home/dtcxzyw/WorkSpace/Projects/compilers/llvm-opt-benchmark/bench/hdf5/hdf5/src/H5Dcontig.c\00", align 1
@H5E_DATASET_g = external global i64, align 8
@H5E_CANTOPERATE_g = external global i64, align 8
@.str.48 = private unnamed_addr constant [30 x i8] c"can't perform vectorized read\00", align 1
@__func__.H5D__contig_writevv = private unnamed_addr constant [20 x i8] c"H5D__contig_writevv\00", align 1
@.str.52 = private unnamed_addr constant [44 x i8] c"can't perform vectorized sieve buffer write\00", align 1

; Function Attrs: nounwind uwtable
define internal i64 @H5D__contig_writevv(ptr noundef %0, ptr noundef %1, i64 noundef %2, ptr noundef %3, ptr noundef %4, ptr noundef %5, i64 noundef %6, ptr noundef %7, ptr noundef %8, ptr noundef %9) #0 {
  %11 = alloca i64, align 8
  %12 = alloca ptr, align 8
  %13 = alloca ptr, align 8
  %14 = alloca i64, align 8
  %15 = alloca ptr, align 8
  %16 = alloca ptr, align 8
  %17 = alloca ptr, align 8
  %18 = alloca i64, align 8
  %19 = alloca ptr, align 8
  %20 = alloca ptr, align 8
  %21 = alloca ptr, align 8
  %22 = alloca i64, align 8
  %23 = alloca i8, align 1
  %24 = alloca %struct.H5D_contig_writevv_sieve_ud_t, align 8
  %25 = alloca i32, align 4
  %26 = alloca %struct.H5D_contig_writevv_ud_t, align 8
  store ptr %0, ptr %12, align 8, !tbaa !62
  store ptr %1, ptr %13, align 8, !tbaa !64
  store i64 %2, ptr %14, align 8, !tbaa !49
  store ptr %3, ptr %15, align 8, !tbaa !124
  store ptr %4, ptr %16, align 8, !tbaa !124
  store ptr %5, ptr %17, align 8, !tbaa !124
  store i64 %6, ptr %18, align 8, !tbaa !49
  store ptr %7, ptr %19, align 8, !tbaa !124
  store ptr %8, ptr %20, align 8, !tbaa !124
  store ptr %9, ptr %21, align 8, !tbaa !124
  call void @llvm.lifetime.start.p0(i64 8, ptr %22) #6
  store i64 -1, ptr %22, align 8, !tbaa !49
  call void @llvm.lifetime.start.p0(i64 1, ptr %23) #6
  store i8 0, ptr %23, align 1, !tbaa !12
  %27 = load i8, ptr @H5D_init_g, align 1, !tbaa !12, !range !14, !noundef !15
  %28 = trunc i8 %27 to i1
  br i1 %28, label %33, label %29

29:                                               ; preds = %10
  %30 = load i8, ptr @H5_libterm_g, align 1, !tbaa !12, !range !14, !noundef !15
  %31 = trunc i8 %30 to i1
  %32 = xor i1 %31, true
  br label %33

33:                                               ; preds = %29, %10
  %34 = phi i1 [ true, %10 ], [ %32, %29 ]
  %35 = xor i1 %34, true
  %36 = xor i1 %35, true
  %37 = zext i1 %36 to i32
  %38 = sext i32 %37 to i64
  %39 = call i64 @llvm.expect.i64(i64 %38, i64 1)
  %40 = icmp ne i64 %39, 0
  br i1 %40, label %41, label %150

41:                                               ; preds = %33
  %42 = load ptr, ptr %12, align 8, !tbaa !62
  %43 = getelementptr inbounds nuw %struct.H5D_io_info_t, ptr %42, i32 0, i32 0
  %44 = load ptr, ptr %43, align 8, !tbaa !125
  %45 = call zeroext i1 @H5F_shared_has_feature(ptr noundef %44, i32 noundef 8)
  br i1 %45, label %46, label %100

46:                                               ; preds = %41
  call void @llvm.lifetime.start.p0(i64 32, ptr %24) #6
  %47 = load ptr, ptr %12, align 8, !tbaa !62
  %48 = getelementptr inbounds nuw %struct.H5D_io_info_t, ptr %47, i32 0, i32 0
  %49 = load ptr, ptr %48, align 8, !tbaa !125
  %50 = getelementptr inbounds nuw %struct.H5D_contig_writevv_sieve_ud_t, ptr %24, i32 0, i32 0
  store ptr %49, ptr %50, align 8, !tbaa !136
  %51 = load ptr, ptr %13, align 8, !tbaa !64
  %52 = getelementptr inbounds nuw %struct.H5D_dset_io_info_t, ptr %51, i32 0, i32 0
  %53 = load ptr, ptr %52, align 8, !tbaa !66
  %54 = getelementptr inbounds nuw %struct.H5D_t, ptr %53, i32 0, i32 2
  %55 = load ptr, ptr %54, align 8, !tbaa !16
  %56 = getelementptr inbounds nuw %struct.H5D_shared_t, ptr %55, i32 0, i32 14
  %57 = getelementptr inbounds nuw %struct.anon.7, ptr %56, i32 0, i32 0
  %58 = getelementptr inbounds nuw %struct.H5D_contig_writevv_sieve_ud_t, ptr %24, i32 0, i32 1
  store ptr %57, ptr %58, align 8, !tbaa !138
  %59 = load ptr, ptr %13, align 8, !tbaa !64
  %60 = getelementptr inbounds nuw %struct.H5D_dset_io_info_t, ptr %59, i32 0, i32 1
  %61 = load ptr, ptr %60, align 8, !tbaa !75
  %62 = getelementptr inbounds nuw %struct.H5D_contig_writevv_sieve_ud_t, ptr %24, i32 0, i32 2
  store ptr %61, ptr %62, align 8, !tbaa !139
  %63 = load ptr, ptr %13, align 8, !tbaa !64
  %64 = getelementptr inbounds nuw %struct.H5D_dset_io_info_t, ptr %63, i32 0, i32 3
  %65 = load ptr, ptr %64, align 8, !tbaa !54
  %66 = getelementptr inbounds nuw %struct.H5D_contig_writevv_sieve_ud_t, ptr %24, i32 0, i32 3
  store ptr %65, ptr %66, align 8, !tbaa !140
  %67 = load i64, ptr %14, align 8, !tbaa !49
  %68 = load ptr, ptr %15, align 8, !tbaa !124
  %69 = load ptr, ptr %16, align 8, !tbaa !124
  %70 = load ptr, ptr %17, align 8, !tbaa !124
  %71 = load i64, ptr %18, align 8, !tbaa !49
  %72 = load ptr, ptr %19, align 8, !tbaa !124
  %73 = load ptr, ptr %20, align 8, !tbaa !124
  %74 = load ptr, ptr %21, align 8, !tbaa !124
  %75 = call i64 @H5VM_opvv(i64 noundef %67, ptr noundef %68, ptr noundef %69, ptr noundef %70, i64 noundef %71, ptr noundef %72, ptr noundef %73, ptr noundef %74, ptr noundef @H5D__contig_writevv_sieve_cb, ptr noundef %24)
  store i64 %75, ptr %22, align 8, !tbaa !49
  %76 = icmp slt i64 %75, 0
  br i1 %76, label %77, label %96

77:                                               ; preds = %46
  br label %78

78:                                               ; preds = %77
  br label %79

79:                                               ; preds = %78
  br label %80

80:                                               ; preds = %79
  %81 = load i64, ptr @H5E_DATASET_g, align 8, !tbaa !49
  %82 = load i64, ptr @H5E_CANTOPERATE_g, align 8, !tbaa !49
  %83 = call i32 (ptr, ptr, i32, i64, i64, ptr, ...) @H5E_printf_stack(ptr noundef @.str.1, ptr noundef @__func__.H5D__contig_writevv, i32 noundef 1556, i64 noundef %81, i64 noundef %82, ptr noundef @.str.52)
  br label %84

84:                                               ; preds = %80
  br label %85

85:                                               ; preds = %84
  store i8 1, ptr %23, align 1, !tbaa !12
  %86 = load i8, ptr %23, align 1, !tbaa !12, !range !14, !noundef !15
  %87 = trunc i8 %86 to i1
  %88 = zext i1 %87 to i8
  store i8 %88, ptr %23, align 1, !tbaa !12
  br label %89

89:                                               ; preds = %85
  br label %90

90:                                               ; preds = %89
  br label %91

91:                                               ; preds = %90
  store i64 -1, ptr %22, align 8, !tbaa !49
  store i32 10, ptr %25, align 4
  br label %97

92:                                               ; No predecessors!
  br label %93

93:                                               ; preds = %92
  br label %94

94:                                               ; preds = %93
  br label %95

95:                                               ; preds = %94
  br label %96

96:                                               ; preds = %95, %46
  store i32 0, ptr %25, align 4
  br label %97

97:                                               ; preds = %91, %96
  call void @llvm.lifetime.end.p0(i64 32, ptr %24) #6
  %98 = load i32, ptr %25, align 4
  switch i32 %98, label %152 [
    i32 0, label %99
    i32 10, label %149
  ]

99:                                               ; preds = %97
  br label %148

100:                                              ; preds = %41
  call void @llvm.lifetime.start.p0(i64 24, ptr %26) #6
  %101 = load ptr, ptr %12, align 8, !tbaa !62
  %102 = getelementptr inbounds nuw %struct.H5D_io_info_t, ptr %101, i32 0, i32 0
  %103 = load ptr, ptr %102, align 8, !tbaa !125
  %104 = getelementptr inbounds nuw %struct.H5D_contig_writevv_ud_t, ptr %26, i32 0, i32 0
  store ptr %103, ptr %104, align 8, !tbaa !141
  %105 = load ptr, ptr %13, align 8, !tbaa !64
  %106 = getelementptr inbounds nuw %struct.H5D_dset_io_info_t, ptr %105, i32 0, i32 1
  %107 = load ptr, ptr %106, align 8, !tbaa !75
  %108 = getelementptr inbounds nuw %struct.H5D_contig_storage_t, ptr %107, i32 0, i32 0
  %109 = load i64, ptr %108, align 8, !tbaa !54
  %110 = getelementptr inbounds nuw %struct.H5D_contig_writevv_ud_t, ptr %26, i32 0, i32 1
  store i64 %109, ptr %110, align 8, !tbaa !143
  %111 = load ptr, ptr %13, align 8, !tbaa !64
  %112 = getelementptr inbounds nuw %struct.H5D_dset_io_info_t, ptr %111, i32 0, i32 3
  %113 = load ptr, ptr %112, align 8, !tbaa !54
  %114 = getelementptr inbounds nuw %struct.H5D_contig_writevv_ud_t, ptr %26, i32 0, i32 2
  store ptr %113, ptr %114, align 8, !tbaa !144
  %115 = load i64, ptr %14, align 8, !tbaa !49
  %116 = load ptr, ptr %15, align 8, !tbaa !124
  %117 = load ptr, ptr %16, align 8, !tbaa !124
  %118 = load ptr, ptr %17, align 8, !tbaa !124
  %119 = load i64, ptr %18, align 8, !tbaa !49
  %120 = load ptr, ptr %19, align 8, !tbaa !124
  %121 = load ptr, ptr %20, align 8, !tbaa !124
  %122 = load ptr, ptr %21, align 8, !tbaa !124
  %123 = call i64 @H5VM_opvv(i64 noundef %115, ptr noundef %116, ptr noundef %117, ptr noundef %118, i64 noundef %119, ptr noundef %120, ptr noundef %121, ptr noundef %122, ptr noundef @H5D__contig_writevv_cb, ptr noundef %26)
  store i64 %123, ptr %22, align 8, !tbaa !49
  %124 = icmp slt i64 %123, 0
  br i1 %124, label %125, label %144

125:                                              ; preds = %100
  br label %126

126:                                              ; preds = %125
  br label %127

127:                                              ; preds = %126
  br label %128

128:                                              ; preds = %127
  %129 = load i64, ptr @H5E_DATASET_g, align 8, !tbaa !49
  %130 = load i64, ptr @H5E_CANTOPERATE_g, align 8, !tbaa !49
  %131 = call i32 (ptr, ptr, i32, i64, i64, ptr, ...) @H5E_printf_stack(ptr noundef @.str.1, ptr noundef @__func__.H5D__contig_writevv, i32 noundef 1570, i64 noundef %129, i64 noundef %130, ptr noundef @.str.48)
  br label %132

132:                                              ; preds = %128
  br label %133

133:                                              ; preds = %132
  store i8 1, ptr %23, align 1, !tbaa !12
  %134 = load i8, ptr %23, align 1, !tbaa !12, !range !14, !noundef !15
  %135 = trunc i8 %134 to i1
  %136 = zext i1 %135 to i8
  store i8 %136, ptr %23, align 1, !tbaa !12
  br label %137

137:                                              ; preds = %133
  br label %138

138:                                              ; preds = %137
  br label %139

139:                                              ; preds = %138
  store i64 -1, ptr %22, align 8, !tbaa !49
  store i32 10, ptr %25, align 4
  br label %145

140:                                              ; No predecessors!
  br label %141

141:                                              ; preds = %140
  br label %142

142:                                              ; preds = %141
  br label %143

143:                                              ; preds = %142
  br label %144

144:                                              ; preds = %143, %100
  store i32 0, ptr %25, align 4
  br label %145

145:                                              ; preds = %139, %144
  call void @llvm.lifetime.end.p0(i64 24, ptr %26) #6
  %146 = load i32, ptr %25, align 4
  switch i32 %146, label %152 [
    i32 0, label %147
    i32 10, label %149
  ]

147:                                              ; preds = %145
  br label %148

148:                                              ; preds = %147, %99
  br label %149

149:                                              ; preds = %148, %145, %97
  br label %150

150:                                              ; preds = %149, %33
  %151 = load i64, ptr %22, align 8, !tbaa !49
  store i64 %151, ptr %11, align 8
  store i32 1, ptr %25, align 4
  br label %152

152:                                              ; preds = %150, %145, %97
  call void @llvm.lifetime.end.p0(i64 1, ptr %23) #6
  call void @llvm.lifetime.end.p0(i64 8, ptr %22) #6
  %153 = load i64, ptr %11, align 8
  ret i64 %153
}