; Function Attrs: nounwind uwtable
define internal range(i64 -1, -9223372036854775808) i64 @H5D__contig_writevv(ptr noundef readonly captures(none) %0, ptr noundef readonly captures(none) %1, i64 noundef %2, ptr noundef %3, ptr noundef %4, ptr noundef %5, i64 noundef %6, ptr noundef %7, ptr noundef %8, ptr noundef %9) #0 {
  %11 = alloca %struct.H5D_contig_writevv_sieve_ud_t, align 8
  %12 = alloca %struct.H5D_contig_writevv_ud_t, align 8
  %13 = load i8, ptr @H5D_init_g, align 1, !tbaa !3, !range !7, !noundef !8
  %14 = trunc nuw i8 %13 to i1
  %15 = load i8, ptr @H5_libterm_g, align 1, !range !7
  %16 = trunc nuw i8 %15 to i1
  %17 = xor i1 %16, true
  %18 = select i1 %14, i1 true, i1 %17
  br i1 %18, label %19, label %58, !prof !9

19:                                               ; preds = %10
  %20 = load ptr, ptr %0, align 8, !tbaa !104
  %21 = tail call zeroext i1 @H5F_shared_has_feature(ptr noundef %20, i32 noundef 8) #9
  br i1 %21, label %22, label %42

22:                                               ; preds = %19
  call void @llvm.lifetime.start.p0(i64 32, ptr nonnull %11) #9
  %23 = load ptr, ptr %0, align 8, !tbaa !104
  store ptr %23, ptr %11, align 8, !tbaa !130
  %24 = load ptr, ptr %1, align 8, !tbaa !56
  %25 = getelementptr inbounds nuw i8, ptr %24, i64 48
  %26 = load ptr, ptr %25, align 8, !tbaa !10
  %27 = getelementptr inbounds nuw i8, ptr %26, i64 3280
  %28 = getelementptr inbounds nuw i8, ptr %11, i64 8
  store ptr %27, ptr %28, align 8, !tbaa !132
  %29 = getelementptr inbounds nuw i8, ptr %1, i64 8
  %30 = load ptr, ptr %29, align 8, !tbaa !66
  %31 = getelementptr inbounds nuw i8, ptr %11, i64 16
  store ptr %30, ptr %31, align 8, !tbaa !133
  %32 = getelementptr inbounds nuw i8, ptr %1, i64 120
  %33 = load ptr, ptr %32, align 8, !tbaa !51
  %34 = getelementptr inbounds nuw i8, ptr %11, i64 24
  store ptr %33, ptr %34, align 8, !tbaa !134
  %35 = call i64 @H5VM_opvv(i64 noundef %2, ptr noundef %3, ptr noundef %4, ptr noundef %5, i64 noundef %6, ptr noundef %7, ptr noundef %8, ptr noundef %9, ptr noundef nonnull @H5D__contig_writevv_sieve_cb, ptr noundef nonnull %11) #9
  %36 = icmp slt i64 %35, 0
  br i1 %36, label %37, label %41

37:                                               ; preds = %22
  %38 = load i64, ptr @H5E_DATASET_g, align 8, !tbaa !48
  %39 = load i64, ptr @H5E_CANTOPERATE_g, align 8, !tbaa !48
  %40 = call i32 (ptr, ptr, i32, i64, i64, ptr, ...) @H5E_printf_stack(ptr noundef nonnull @.str.1, ptr noundef nonnull @__func__.H5D__contig_writevv, i32 noundef 1556, i64 noundef %38, i64 noundef %39, ptr noundef nonnull @.str.52) #9
  br label %41

41:                                               ; preds = %22, %37
  %.130 = phi i64 [ -1, %37 ], [ %35, %22 ]
  call void @llvm.lifetime.end.p0(i64 32, ptr nonnull %11) #9
  br label %58

42:                                               ; preds = %19
  call void @llvm.lifetime.start.p0(i64 24, ptr nonnull %12) #9
  %43 = load ptr, ptr %0, align 8, !tbaa !104
  store ptr %43, ptr %12, align 8, !tbaa !135
  %44 = getelementptr inbounds nuw i8, ptr %1, i64 8
  %45 = load ptr, ptr %44, align 8, !tbaa !66
  %46 = load i64, ptr %45, align 8, !tbaa !51
  %47 = getelementptr inbounds nuw i8, ptr %12, i64 8
  store i64 %46, ptr %47, align 8, !tbaa !137
  %48 = getelementptr inbounds nuw i8, ptr %1, i64 120
  %49 = load ptr, ptr %48, align 8, !tbaa !51
  %50 = getelementptr inbounds nuw i8, ptr %12, i64 16
  store ptr %49, ptr %50, align 8, !tbaa !138
  %51 = call i64 @H5VM_opvv(i64 noundef %2, ptr noundef %3, ptr noundef %4, ptr noundef %5, i64 noundef %6, ptr noundef %7, ptr noundef %8, ptr noundef %9, ptr noundef nonnull @H5D__contig_writevv_cb, ptr noundef nonnull %12) #9
  %52 = icmp slt i64 %51, 0
  br i1 %52, label %53, label %57

53:                                               ; preds = %42
  %54 = load i64, ptr @H5E_DATASET_g, align 8, !tbaa !48
  %55 = load i64, ptr @H5E_CANTOPERATE_g, align 8, !tbaa !48
  %56 = call i32 (ptr, ptr, i32, i64, i64, ptr, ...) @H5E_printf_stack(ptr noundef nonnull @.str.1, ptr noundef nonnull @__func__.H5D__contig_writevv, i32 noundef 1570, i64 noundef %54, i64 noundef %55, ptr noundef nonnull @.str.48) #9
  br label %57

57:                                               ; preds = %42, %53
  %.2 = phi i64 [ -1, %53 ], [ %51, %42 ]
  call void @llvm.lifetime.end.p0(i64 24, ptr nonnull %12) #9
  br label %58

58:                                               ; preds = %57, %41, %10
  %.031 = phi i64 [ %.130, %41 ], [ %.2, %57 ], [ -1, %10 ]
  ret i64 %.031
}